; Function Attrs: mustprogress nofree nosync nounwind willreturn memory(read, inaccessiblemem: none) uwtable
define internal fastcc noundef zeroext i1 @_ZN5YosysL24contains_unbased_unsizedEPKNS_3AST7AstNodeE(ptr noundef readonly captures(none) %0) unnamed_addr #15 {
  %2 = getelementptr inbounds nuw i8, ptr %0, i64 4
  %3 = load i32, ptr %2, align 4, !tbaa !49
  %4 = icmp eq i32 %3, 16
  br i1 %4, label %5, label %9

5:                                                ; preds = %1
  %6 = getelementptr inbounds nuw i8, ptr %0, i64 147
  %7 = load i8, ptr %6, align 1, !tbaa !419, !range !45, !noundef !46
  %8 = trunc nuw i8 %7 to i1
  br label %.loopexit

9:                                                ; preds = %1
  %10 = getelementptr inbounds nuw i8, ptr %0, i64 8
  %11 = load ptr, ptr %10, align 8, !tbaa !50
  %12 = getelementptr inbounds nuw i8, ptr %0, i64 16
  %13 = load ptr, ptr %12, align 8, !tbaa !50
  %.not13.not = icmp eq ptr %11, %13
  br i1 %.not13.not, label %.loopexit, label %.lr.ph

.lr.ph:                                           ; preds = %9, %.lr.ph
  %.sroa.010.014 = phi ptr [ %16, %.lr.ph ], [ %11, %9 ]
  %14 = load ptr, ptr %.sroa.010.014, align 8, !tbaa !51
  %15 = tail call fastcc noundef zeroext i1 @_ZN5YosysL24contains_unbased_unsizedEPKNS_3AST7AstNodeE(ptr noundef %14)
  %16 = getelementptr inbounds nuw i8, ptr %.sroa.010.014, i64 8
  %.not.not = icmp eq ptr %16, %13
  %or.cond = select i1 %15, i1 true, i1 %.not.not
  br i1 %or.cond, label %.loopexit, label %.lr.ph

.loopexit:                                        ; preds = %.lr.ph, %9, %5
  %.0 = phi i1 [ %8, %5 ], [ false, %9 ], [ %15, %.lr.ph ]
  ret i1 %.0
}